; Function Attrs: mustprogress nofree nounwind uwtable
define hidden noalias noundef ptr @_ZN4test6fdopenEiPKc(i32 noundef %0, ptr noundef readonly captures(none) %1) local_unnamed_addr #1 {
  %3 = load i32, ptr @_ZN12_GLOBAL__N_112fdopen_countE, align 4, !tbaa !10
  %.not = icmp eq i32 %3, 0
  br i1 %.not, label %8, label %4

4:                                                ; preds = %2
  %5 = add nsw i32 %3, 1
  store i32 %5, ptr @_ZN12_GLOBAL__N_112fdopen_countE, align 4, !tbaa !10
  %.not3 = icmp eq i32 %3, 3
  br i1 %.not3, label %8, label %6

6:                                                ; preds = %4
  %7 = tail call ptr @__errno_location() #28
  store i32 4, ptr %7, align 4, !tbaa !10
  br label %10

8:                                                ; preds = %4, %2
  %9 = tail call noalias ptr @fdopen(i32 noundef %0, ptr noundef %1) #29
  br label %10

10:                                               ; preds = %8, %6
  %.0 = phi ptr [ null, %6 ], [ %9, %8 ]
  ret ptr %.0
}